Certificate:
    Data:
        Version: 3 (0x2)
        Serial Number: 2 (0x2)
        Signature Algorithm: sha256WithRSAEncryption
        Issuer: O=Test Org, CN=Test Org rauc CA Development
        Validity
            Not Before: Jan  1 00:00:00 1970 GMT
            Not After : Dec 31 23:59:59 9999 GMT
        Subject: O=Test Org, CN=Test Org Development-1
        Subject Public Key Info:
            Public Key Algorithm: rsaEncryption
                Public-Key: (2048 bit)
                Modulus:
                    00:f4:97:43:21:33:08:b4:3d:3c:11:c4:fe:ad:d1:
                    a4:55:2d:33:45:02:44:3b:1e:af:6c:ac:d8:a2:76:
                    8f:99:51:5f:ec:32:00:ca:34:d4:91:ec:57:40:ae:
                    2f:0f:54:00:76:92:7a:1e:16:54:f1:f4:44:56:41:
                    9d:56:2b:2d:34:66:7a:32:1f:ca:7d:17:53:81:65:
                    e8:89:6c:3a:00:dc:85:41:e8:0b:20:5b:41:ec:8e:
                    30:a4:b0:4e:e2:f2:e6:a1:6c:3e:6e:74:23:bc:59:
                    56:86:07:a3:ed:c6:17:7a:3b:2e:97:3d:a2:3e:1a:
                    c8:f3:1b:7c:b0:14:c0:60:d2:d3:70:47:3b:80:03:
                    91:5a:9e:f0:1c:94:3c:35:1b:76:b8:bb:07:12:23:
                    b4:4e:39:c8:8b:b4:3f:3a:d3:38:88:cd:14:3d:2c:
                    51:a8:d0:15:19:a3:28:09:09:13:38:ec:eb:31:92:
                    16:7e:69:ff:4e:f8:45:32:3f:cc:43:f2:ff:06:de:
                    1a:8f:ed:d8:3e:1b:dd:a2:37:a7:c5:52:13:56:36:
                    2a:e0:09:67:2f:5f:80:21:0e:9e:ac:49:ef:b0:b9:
                    b1:61:5e:b2:98:d0:ab:13:7d:f7:8d:99:b3:3c:24:
                    b9:6f:9f:bd:f5:dd:f1:b0:b4:4c:73:87:58:79:47:
                    fe:ff
                Exponent: 65537 (0x10001)
        X509v3 extensions:
            X509v3 Subject Key Identifier: 
                3F:99:78:46:85:FF:03:8C:ED:85:56:A4:DE:B3:77:CA:BE:32:87:DD
            X509v3 Authority Key Identifier: 
                keyid:E1:6D:D9:A7:1E:3A:6D:F1:B1:F2:12:11:1C:16:A1:E8:DF:7A:DB:55
                DirName:/O=Test Org/CN=Test Org rauc CA Development
                serial:01
            X509v3 Basic Constraints: 
                CA:FALSE
    Signature Algorithm: sha256WithRSAEncryption
    Signature Value:
        29:55:0f:fd:1c:e4:0b:c7:24:07:b8:60:e5:4b:55:bb:a2:dd:
        0b:ff:a2:42:cc:89:88:e2:9a:d3:c4:21:f1:9f:94:43:5a:ce:
        ac:8f:06:eb:ea:c9:43:e1:c4:5c:c9:42:44:e4:bf:63:3b:54:
        21:8a:1b:24:5a:a2:b3:ea:fd:6c:f2:10:82:9b:98:af:8e:ff:
        73:d1:7f:72:f0:bb:96:2f:fc:6c:cf:55:0a:0f:ba:5c:aa:83:
        f8:7b:a1:59:e8:e2:63:8e:18:16:85:58:df:e7:04:bf:c8:95:
        4a:b8:ab:f7:63:8b:1e:f4:63:d8:66:28:65:73:a2:cf:94:a0:
        3b:5a:ba:3d:3e:13:1c:48:9e:e4:56:9c:6f:b3:5e:92:ce:32:
        90:1c:02:0e:2d:db:bd:d3:64:34:c9:d6:e0:b6:b5:b5:1f:0e:
        6d:ed:d3:3d:97:61:24:56:1e:05:8b:a4:5d:5c:2f:de:13:e6:
        8a:06:ff:a4:23:1b:ac:83:74:7a:56:1c:03:ce:8e:b5:0c:24:
        e1:7a:30:2a:aa:df:74:42:c2:08:5e:ba:80:d1:85:8b:9b:64:
        2f:0c:ef:b8:37:12:d9:d4:ba:b0:6f:13:2f:c4:35:aa:02:e1:
        c3:50:a7:31:0a:19:0a:f7:31:60:9e:b3:c6:6b:39:24:3e:b6:
        c6:2e:e4:3c
-----BEGIN CERTIFICATE-----
MIIDfTCCAmWgAwIBAgIBAjANBgkqhkiG9w0BAQsFADA6MREwDwYDVQQKDAhUZXN0
IE9yZzElMCMGA1UEAwwcVGVzdCBPcmcgcmF1YyBDQSBEZXZlbG9wbWVudDAgFw03
MDAxMDEwMDAwMDBaGA85OTk5MTIzMTIzNTk1OVowNDERMA8GA1UECgwIVGVzdCBP
cmcxHzAdBgNVBAMMFlRlc3QgT3JnIERldmVsb3BtZW50LTEwggEiMA0GCSqGSIb3
DQEBAQUAA4IBDwAwggEKAoIBAQD0l0MhMwi0PTwRxP6t0aRVLTNFAkQ7Hq9srNii
do+ZUV/sMgDKNNSR7FdAri8PVAB2knoeFlTx9ERWQZ1WKy00ZnoyH8p9F1OBZeiJ
bDoA3IVB6AsgW0HsjjCksE7i8uahbD5udCO8WVaGB6Ptxhd6Oy6XPaI+GsjzG3yw
FMBg0tNwRzuAA5FanvAclDw1G3a4uwcSI7ROOciLtD860ziIzRQ9LFGo0BUZoygJ
CRM47OsxkhZ+af9O+EUyP8xD8v8G3hqP7dg+G92iN6fFUhNWNirgCWcvX4AhDp6s
Se+wubFhXrKY0KsTffeNmbM8JLlvn7313fGwtExzh1h5R/7/AgMBAAGjgZEwgY4w
HQYDVR0OBBYEFD+ZeEaF/wOM7YVWpN6zd8q+MofdMGIGA1UdIwRbMFmAFOFt2ace
Om3xsfISERwWoejfettVoT6kPDA6MREwDwYDVQQKDAhUZXN0IE9yZzElMCMGA1UE
AwwcVGVzdCBPcmcgcmF1YyBDQSBEZXZlbG9wbWVudIIBATAJBgNVHRMEAjAAMA0G
CSqGSIb3DQEBCwUAA4IBAQApVQ/9HOQLxyQHuGDlS1W7ot0L/6JCzImI4prTxCHx
n5RDWs6sjwbr6slD4cRcyUJE5L9jO1QhihskWqKz6v1s8hCCm5ivjv9z0X9y8LuW
L/xsz1UKD7pcqoP4e6FZ6OJjjhgWhVjf5wS/yJVKuKv3Y4se9GPYZihlc6LPlKA7
Wro9PhMcSJ7kVpxvs16SzjKQHAIOLdu902Q0ydbgtrW1Hw5t7dM9l2EkVh4Fi6Rd
XC/eE+aKBv+kIxusg3R6VhwDzo61DCThejAqqt90QsIIXrqA0YWLm2QvDO+4NxLZ
1LqwbxMvxDWqAuHDUKcxChkK9zFgnrPGazkkPrbGLuQ8
-----END CERTIFICATE-----
