Certificate:
    Data:
        Version: 3 (0x2)
        Serial Number: 1 (0x1)
        Signature Algorithm: sha256WithRSAEncryption
        Issuer: O=Test Org, CN=Test Org rauc CA Development
        Validity
            Not Before: Jan  1 00:00:00 1970 GMT
            Not After : Dec 31 23:59:59 9999 GMT
        Subject: O=Test Org, CN=Test Org rauc CA Development
        Subject Public Key Info:
            Public Key Algorithm: rsaEncryption
                Public-Key: (2048 bit)
                Modulus:
                    00:a5:c0:7e:07:07:e5:8c:47:aa:28:16:85:1a:81:
                    1b:42:29:93:56:a6:86:f9:ee:b7:03:45:9e:74:db:
                    09:f0:26:bb:65:cd:37:f1:8a:70:f0:99:f9:27:bf:
                    9b:b6:3f:df:1e:1c:11:45:c3:e5:cc:bd:ad:23:a3:
                    70:38:ab:dc:bd:1e:8d:24:74:60:b5:ca:c1:30:26:
                    a6:d6:fd:41:7a:10:f3:d0:ff:72:d4:47:cb:d9:b9:
                    dd:28:28:6c:d0:b7:88:99:ce:c0:ce:66:c1:20:84:
                    de:7a:02:b4:9a:59:02:b7:ff:ef:2f:5b:56:a7:c9:
                    62:d1:ab:67:4d:b1:06:fe:8e:db:50:8d:cc:d1:d1:
                    14:98:2b:72:24:be:65:30:dc:43:4c:03:a6:d6:34:
                    62:ad:6b:42:1f:0e:ff:12:ea:37:c4:c9:2b:85:ea:
                    fd:4d:10:2f:b5:5a:ed:8d:8a:2b:7a:42:8c:47:77:
                    a6:d0:83:90:83:de:28:14:bb:9e:65:56:bc:51:b5:
                    12:a2:a2:9e:5c:68:6f:01:6a:62:cd:2e:c2:c7:a2:
                    af:49:b6:be:89:e0:19:e7:e5:c2:72:53:f3:38:61:
                    6f:be:2a:10:ea:cf:5a:e9:0c:fe:e8:11:f5:30:02:
                    42:51:43:09:4c:ae:11:62:e1:ef:04:b0:d7:bd:bc:
                    cf:ab
                Exponent: 65537 (0x10001)
        X509v3 extensions:
            X509v3 Subject Key Identifier: 
                E1:6D:D9:A7:1E:3A:6D:F1:B1:F2:12:11:1C:16:A1:E8:DF:7A:DB:55
            X509v3 Authority Key Identifier: 
                keyid:E1:6D:D9:A7:1E:3A:6D:F1:B1:F2:12:11:1C:16:A1:E8:DF:7A:DB:55
                DirName:/O=Test Org/CN=Test Org rauc CA Development
                serial:01
            X509v3 Basic Constraints: 
                CA:TRUE
    Signature Algorithm: sha256WithRSAEncryption
    Signature Value:
        08:9d:f5:e1:22:35:6f:cf:ce:1a:39:99:44:c7:d7:94:31:71:
        31:4b:c8:09:b0:a2:6b:00:96:32:36:c5:0c:46:d3:80:1c:0f:
        d1:b9:4f:9c:63:39:94:ce:3a:f5:aa:f8:21:15:2d:5d:2a:b5:
        44:79:56:6e:ec:7e:d4:57:1f:ed:55:1f:42:36:a6:87:9c:74:
        24:27:9f:fb:f2:47:57:0d:63:bb:16:be:fe:ef:65:7a:09:15:
        4e:a9:3b:a1:13:e4:93:3a:e3:a5:4d:70:08:bc:5c:bf:d7:55:
        a1:e7:30:24:52:f7:58:58:7c:a6:ae:03:73:00:22:80:6b:21:
        da:22:df:55:5e:02:3a:c9:59:80:29:2f:9b:e6:13:95:73:44:
        d2:2d:79:3c:e5:78:5a:9d:7e:7b:91:e5:25:f2:1d:cf:db:82:
        4d:bf:76:f3:e4:bd:16:46:41:0a:2e:70:b0:64:02:f4:ab:a6:
        0b:0b:64:e8:59:f7:c4:3d:dd:08:47:60:58:90:4f:74:75:cd:
        aa:a4:2d:bd:0b:a7:42:ae:d2:4c:94:d9:85:88:25:22:cb:09:
        e0:da:20:d4:dc:f8:40:4d:0c:08:3e:6a:65:2e:ec:42:e6:47:
        93:f3:6e:4b:2b:bb:3f:56:af:4f:8e:26:f8:85:44:c3:fa:93:
        df:13:81:12
-----BEGIN CERTIFICATE-----
MIIDhjCCAm6gAwIBAgIBATANBgkqhkiG9w0BAQsFADA6MREwDwYDVQQKDAhUZXN0
IE9yZzElMCMGA1UEAwwcVGVzdCBPcmcgcmF1YyBDQSBEZXZlbG9wbWVudDAgFw03
MDAxMDEwMDAwMDBaGA85OTk5MTIzMTIzNTk1OVowOjERMA8GA1UECgwIVGVzdCBP
cmcxJTAjBgNVBAMMHFRlc3QgT3JnIHJhdWMgQ0EgRGV2ZWxvcG1lbnQwggEiMA0G
CSqGSIb3DQEBAQUAA4IBDwAwggEKAoIBAQClwH4HB+WMR6ooFoUagRtCKZNWpob5
7rcDRZ502wnwJrtlzTfxinDwmfknv5u2P98eHBFFw+XMva0jo3A4q9y9Ho0kdGC1
ysEwJqbW/UF6EPPQ/3LUR8vZud0oKGzQt4iZzsDOZsEghN56ArSaWQK3/+8vW1an
yWLRq2dNsQb+jttQjczR0RSYK3IkvmUw3ENMA6bWNGKta0IfDv8S6jfEySuF6v1N
EC+1Wu2Niit6QoxHd6bQg5CD3igUu55lVrxRtRKiop5caG8BamLNLsLHoq9Jtr6J
4Bnn5cJyU/M4YW++KhDqz1rpDP7oEfUwAkJRQwlMrhFi4e8EsNe9vM+rAgMBAAGj
gZQwgZEwHQYDVR0OBBYEFOFt2aceOm3xsfISERwWoejfettVMGIGA1UdIwRbMFmA
FOFt2aceOm3xsfISERwWoejfettVoT6kPDA6MREwDwYDVQQKDAhUZXN0IE9yZzEl
MCMGA1UEAwwcVGVzdCBPcmcgcmF1YyBDQSBEZXZlbG9wbWVudIIBATAMBgNVHRME
BTADAQH/MA0GCSqGSIb3DQEBCwUAA4IBAQAInfXhIjVvz84aOZlEx9eUMXExS8gJ
sKJrAJYyNsUMRtOAHA/RuU+cYzmUzjr1qvghFS1dKrVEeVZu7H7UVx/tVR9CNqaH
nHQkJ5/78kdXDWO7Fr7+72V6CRVOqTuhE+STOuOlTXAIvFy/11Wh5zAkUvdYWHym
rgNzACKAayHaIt9VXgI6yVmAKS+b5hOVc0TSLXk85XhanX57keUl8h3P24JNv3bz
5L0WRkEKLnCwZAL0q6YLC2ToWffEPd0IR2BYkE90dc2qpC29C6dCrtJMlNmFiCUi
ywng2iDU3PhATQwIPmplLuxC5keT825LK7s/Vq9Pjib4hUTD+pPfE4ES
-----END CERTIFICATE-----
